; Function Attrs: mustprogress nofree nounwind uwtable
define hidden void @_ZN2cv8tracking4impl3tld15TrackerTLDModel7printmeEP8_IO_FILE(ptr noundef nonnull readonly align 8 captures(none) dereferenceable(512) %0, ptr noundef captures(none) %1) local_unnamed_addr #11 align 2 {
  %3 = tail call i64 @fwrite(ptr nonnull @.str, i64 17, i64 1, ptr %1)
  %4 = getelementptr inbounds nuw i8, ptr %0, i64 120
  %5 = getelementptr inbounds nuw i8, ptr %0, i64 128
  %6 = load ptr, ptr %5, align 8, !tbaa !120
  %7 = load ptr, ptr %4, align 8, !tbaa !119
  %8 = ptrtoint ptr %6 to i64
  %9 = ptrtoint ptr %7 to i64
  %10 = sub i64 %8, %9
  %11 = sdiv exact i64 %10, 96
  %12 = trunc i64 %11 to i32
  %13 = tail call i32 (ptr, ptr, ...) @fprintf(ptr noundef %1, ptr noundef nonnull @.str.2, i32 noundef %12) #24
  %14 = getelementptr inbounds nuw i8, ptr %0, i64 144
  %15 = getelementptr inbounds nuw i8, ptr %0, i64 152
  %16 = load ptr, ptr %15, align 8, !tbaa !120
  %17 = load ptr, ptr %14, align 8, !tbaa !119
  %18 = ptrtoint ptr %16 to i64
  %19 = ptrtoint ptr %17 to i64
  %20 = sub i64 %18, %19
  %21 = sdiv exact i64 %20, 96
  %22 = trunc i64 %21 to i32
  %23 = tail call i32 (ptr, ptr, ...) @fprintf(ptr noundef %1, ptr noundef nonnull @.str.3, i32 noundef %22) #24
  ret void
}